target datalayout = "e-m:e-p270:32:32-p271:32:32-p272:64:64-i64:64-i128:128-f80:128-n8:16:32:64-S128"
target triple = "x86_64-pc-linux-gnu"

%"class.std::basic_ostream" = type { ptr, %"class.std::basic_ios" }
%"class.std::basic_ios" = type { %"class.std::ios_base", ptr, i8, i8, ptr, ptr, ptr, ptr }
%"class.std::ios_base" = type { ptr, i64, i64, i32, i32, i32, ptr, %"struct.std::ios_base::_Words", [8 x %"struct.std::ios_base::_Words"], i32, ptr, %"class.std::locale" }
%"struct.std::ios_base::_Words" = type { ptr, i64 }
%"class.std::locale" = type { ptr }

@_ZSt4cout = external global %"class.std::basic_ostream", align 8
@_ZZN11ShaderUtils17linkShaderProgramEjE7proglog = internal global [2048 x i8] zeroinitializer, align 16
@__glewLinkProgram = external global ptr, align 8
@__glewGetProgramiv = external global ptr, align 8
@__glewGetProgramInfoLog = external global ptr, align 8

; Function Attrs: mustprogress uwtable
define void @_ZN11ShaderUtils17linkShaderProgramEj(i32 noundef %0) #5 {
  %2 = alloca i32, align 4
  %3 = alloca i32, align 4
  %4 = alloca i32, align 4
  store i32 %0, ptr %2, align 4
  %5 = load ptr, ptr @__glewLinkProgram, align 8
  %6 = load i32, ptr %2, align 4
  call void %5(i32 noundef %6)
  %7 = load ptr, ptr @__glewGetProgramiv, align 8
  %8 = load i32, ptr %2, align 4
  call void %7(i32 noundef %8, i32 noundef 35714, ptr noundef %3)
  %9 = load i32, ptr %3, align 4
  %10 = icmp ne i32 %9, 1
  br i1 %10, label %11, label %17

11:                                               ; preds = %1
  %12 = load ptr, ptr @__glewGetProgramInfoLog, align 8
  %13 = load i32, ptr %2, align 4
  call void %12(i32 noundef %13, i32 noundef 2048, ptr noundef %4, ptr noundef @_ZZN11ShaderUtils17linkShaderProgramEjE7proglog)
  %14 = call noundef nonnull align 8 dereferenceable(8) ptr @_ZNSolsEPFRSoS_E(ptr noundef nonnull align 8 dereferenceable(8) @_ZSt4cout, ptr noundef @_ZSt4endlIcSt11char_traitsIcEERSt13basic_ostreamIT_T0_ES6_)
  %15 = call noundef nonnull align 8 dereferenceable(8) ptr @_ZStlsISt11char_traitsIcEERSt13basic_ostreamIcT_ES5_PKc(ptr noundef nonnull align 8 dereferenceable(8) @_ZSt4cout, ptr noundef @_ZZN11ShaderUtils17linkShaderProgramEjE7proglog)
  %16 = call noundef nonnull align 8 dereferenceable(8) ptr @_ZNSolsEPFRSoS_E(ptr noundef nonnull align 8 dereferenceable(8) %15, ptr noundef @_ZSt4endlIcSt11char_traitsIcEERSt13basic_ostreamIT_T0_ES6_)
  br label %17

17:                                               ; preds = %11, %1
  ret void
}