; Function Attrs: mustprogress uwtable
define void @_ZN11ShaderUtils17linkShaderProgramEj(i32 noundef %0) local_unnamed_addr #9 {
  %2 = alloca i32, align 4
  %3 = alloca i32, align 4
  %4 = load ptr, ptr @__glewLinkProgram, align 8
  tail call void %4(i32 noundef %0)
  %5 = load ptr, ptr @__glewGetProgramiv, align 8
  call void %5(i32 noundef %0, i32 noundef 35714, ptr noundef nonnull %2)
  %6 = load i32, ptr %2, align 4
  %.not = icmp eq i32 %6, 1
  br i1 %.not, label %12, label %7

7:                                                ; preds = %1
  %8 = load ptr, ptr @__glewGetProgramInfoLog, align 8
  call void %8(i32 noundef %0, i32 noundef 2048, ptr noundef nonnull %3, ptr noundef nonnull @_ZZN11ShaderUtils17linkShaderProgramEjE7proglog)
  %9 = call noundef nonnull align 8 dereferenceable(8) ptr @_ZNSolsEPFRSoS_E(ptr noundef nonnull align 8 dereferenceable(8) @_ZSt4cout, ptr noundef nonnull @_ZSt4endlIcSt11char_traitsIcEERSt13basic_ostreamIT_T0_ES6_)
  %10 = call noundef nonnull align 8 dereferenceable(8) ptr @_ZStlsISt11char_traitsIcEERSt13basic_ostreamIcT_ES5_PKc(ptr noundef nonnull align 8 dereferenceable(8) @_ZSt4cout, ptr noundef nonnull @_ZZN11ShaderUtils17linkShaderProgramEjE7proglog)
  %11 = call noundef nonnull align 8 dereferenceable(8) ptr @_ZNSolsEPFRSoS_E(ptr noundef nonnull align 8 dereferenceable(8) %10, ptr noundef nonnull @_ZSt4endlIcSt11char_traitsIcEERSt13basic_ostreamIT_T0_ES6_)
  br label %12

12:                                               ; preds = %7, %1
  ret void
}